; Function Attrs: nounwind uwtable
define ptr @l_Std_Time_ZonedDateTime_toPlainDateTime(ptr noundef readonly captures(none) %0) local_unnamed_addr #1 {
  %2 = getelementptr inbounds nuw i8, ptr %0, i64 8
  %3 = load ptr, ptr %2, align 8, !tbaa !4
  %4 = getelementptr inbounds nuw i8, ptr %3, i64 8
  %5 = load atomic ptr, ptr %4 seq_cst, align 8, !tbaa !15
  %.not.i.i = icmp eq ptr %5, null
  br i1 %.not.i.i, label %6, label %lean_thunk_get.exit.i

6:                                                ; preds = %1
  %7 = tail call ptr @lean_thunk_get_core(ptr noundef nonnull %3) #7
  br label %lean_thunk_get.exit.i

lean_thunk_get.exit.i:                            ; preds = %6, %1
  %.0.i.i = phi ptr [ %7, %6 ], [ %5, %1 ]
  %8 = ptrtoint ptr %.0.i.i to i64
  %9 = and i64 %8, 1
  %.not.i = icmp eq i64 %9, 0
  br i1 %.not.i, label %10, label %lean_thunk_get_own.exit

10:                                               ; preds = %lean_thunk_get.exit.i
  %.val.i.i = load i32, ptr %.0.i.i, align 4, !tbaa !8
  %11 = icmp sgt i32 %.val.i.i, 0
  br i1 %11, label %12, label %14, !prof !11

12:                                               ; preds = %10
  %13 = add nuw i32 %.val.i.i, 1
  store i32 %13, ptr %.0.i.i, align 4, !tbaa !8
  br label %lean_thunk_get_own.exit

14:                                               ; preds = %10
  %.not.i3.i = icmp eq i32 %.val.i.i, 0
  br i1 %.not.i3.i, label %lean_thunk_get_own.exit, label %15

15:                                               ; preds = %14
  tail call void @lean_inc_ref_cold(ptr noundef nonnull %.0.i.i) #7
  br label %lean_thunk_get_own.exit

lean_thunk_get_own.exit:                          ; preds = %lean_thunk_get.exit.i, %12, %14, %15
  ret ptr %.0.i.i
}